; Function Attrs: mustprogress nofree norecurse nosync nounwind willreturn memory(readwrite, inaccessiblemem: none) uwtable
define dso_local void @_ZN16btGearConstraint8getInfo2EPN17btTypedConstraint17btConstraintInfo2E(ptr noundef nonnull readonly align 8 captures(none) dereferenceable(112) %0, ptr noundef readonly captures(none) %1) unnamed_addr #6 align 2 {
  %3 = getelementptr inbounds nuw i8, ptr %0, i64 40
  %4 = load ptr, ptr %3, align 8, !tbaa !24
  %5 = getelementptr inbounds nuw i8, ptr %4, i64 8
  %6 = getelementptr inbounds nuw i8, ptr %0, i64 72
  %7 = load float, ptr %5, align 4, !tbaa !25
  %8 = load float, ptr %6, align 8, !tbaa !25
  %9 = getelementptr inbounds nuw i8, ptr %4, i64 12
  %10 = load float, ptr %9, align 4, !tbaa !25
  %11 = getelementptr inbounds nuw i8, ptr %0, i64 76
  %12 = load float, ptr %11, align 4, !tbaa !25
  %13 = fmul float %10, %12
  %14 = tail call float @llvm.fmuladd.f32(float %7, float %8, float %13)
  %15 = getelementptr inbounds nuw i8, ptr %4, i64 16
  %16 = load float, ptr %15, align 4, !tbaa !25
  %17 = getelementptr inbounds nuw i8, ptr %0, i64 80
  %18 = load float, ptr %17, align 8, !tbaa !25
  %19 = tail call noundef float @llvm.fmuladd.f32(float %16, float %18, float %14)
  %20 = getelementptr inbounds nuw i8, ptr %4, i64 24
  %21 = load float, ptr %20, align 4, !tbaa !25
  %22 = getelementptr inbounds nuw i8, ptr %4, i64 28
  %23 = load float, ptr %22, align 4, !tbaa !25
  %24 = fmul float %12, %23
  %25 = tail call float @llvm.fmuladd.f32(float %21, float %8, float %24)
  %26 = getelementptr inbounds nuw i8, ptr %4, i64 32
  %27 = load float, ptr %26, align 4, !tbaa !25
  %28 = tail call noundef float @llvm.fmuladd.f32(float %27, float %18, float %25)
  %29 = getelementptr inbounds nuw i8, ptr %4, i64 40
  %30 = load float, ptr %29, align 4, !tbaa !25
  %31 = getelementptr inbounds nuw i8, ptr %4, i64 44
  %32 = load float, ptr %31, align 4, !tbaa !25
  %33 = fmul float %12, %32
  %34 = tail call float @llvm.fmuladd.f32(float %30, float %8, float %33)
  %35 = getelementptr inbounds nuw i8, ptr %4, i64 48
  %36 = load float, ptr %35, align 4, !tbaa !25
  %37 = tail call noundef float @llvm.fmuladd.f32(float %36, float %18, float %34)
  %38 = getelementptr inbounds nuw i8, ptr %0, i64 48
  %39 = load ptr, ptr %38, align 8, !tbaa !26
  %40 = getelementptr inbounds nuw i8, ptr %39, i64 8
  %41 = getelementptr inbounds nuw i8, ptr %0, i64 88
  %42 = load float, ptr %40, align 4, !tbaa !25
  %43 = load float, ptr %41, align 8, !tbaa !25
  %44 = getelementptr inbounds nuw i8, ptr %39, i64 12
  %45 = load float, ptr %44, align 4, !tbaa !25
  %46 = getelementptr inbounds nuw i8, ptr %0, i64 92
  %47 = load float, ptr %46, align 4, !tbaa !25
  %48 = fmul float %45, %47
  %49 = tail call float @llvm.fmuladd.f32(float %42, float %43, float %48)
  %50 = getelementptr inbounds nuw i8, ptr %39, i64 16
  %51 = load float, ptr %50, align 4, !tbaa !25
  %52 = getelementptr inbounds nuw i8, ptr %0, i64 96
  %53 = load float, ptr %52, align 8, !tbaa !25
  %54 = tail call noundef float @llvm.fmuladd.f32(float %51, float %53, float %49)
  %55 = getelementptr inbounds nuw i8, ptr %39, i64 24
  %56 = load float, ptr %55, align 4, !tbaa !25
  %57 = getelementptr inbounds nuw i8, ptr %39, i64 28
  %58 = load float, ptr %57, align 4, !tbaa !25
  %59 = fmul float %47, %58
  %60 = tail call float @llvm.fmuladd.f32(float %56, float %43, float %59)
  %61 = getelementptr inbounds nuw i8, ptr %39, i64 32
  %62 = load float, ptr %61, align 4, !tbaa !25
  %63 = tail call noundef float @llvm.fmuladd.f32(float %62, float %53, float %60)
  %64 = getelementptr inbounds nuw i8, ptr %39, i64 40
  %65 = load float, ptr %64, align 4, !tbaa !25
  %66 = getelementptr inbounds nuw i8, ptr %39, i64 44
  %67 = load float, ptr %66, align 4, !tbaa !25
  %68 = fmul float %47, %67
  %69 = tail call float @llvm.fmuladd.f32(float %65, float %43, float %68)
  %70 = getelementptr inbounds nuw i8, ptr %39, i64 48
  %71 = load float, ptr %70, align 4, !tbaa !25
  %72 = tail call noundef float @llvm.fmuladd.f32(float %71, float %53, float %69)
  %73 = getelementptr inbounds nuw i8, ptr %1, i64 16
  %74 = load ptr, ptr %73, align 8, !tbaa !27
  store float %19, ptr %74, align 4, !tbaa !25
  %75 = getelementptr inbounds nuw i8, ptr %74, i64 4
  store float %28, ptr %75, align 4, !tbaa !25
  %76 = getelementptr inbounds nuw i8, ptr %74, i64 8
  store float %37, ptr %76, align 4, !tbaa !25
  %77 = getelementptr inbounds nuw i8, ptr %0, i64 108
  %78 = load float, ptr %77, align 4, !tbaa !10
  %79 = fmul float %54, %78
  %80 = getelementptr inbounds nuw i8, ptr %1, i64 32
  %81 = load ptr, ptr %80, align 8, !tbaa !30
  store float %79, ptr %81, align 4, !tbaa !25
  %82 = load float, ptr %77, align 4, !tbaa !10
  %83 = fmul float %63, %82
  %84 = getelementptr inbounds nuw i8, ptr %81, i64 4
  store float %83, ptr %84, align 4, !tbaa !25
  %85 = load float, ptr %77, align 4, !tbaa !10
  %86 = fmul float %72, %85
  %87 = getelementptr inbounds nuw i8, ptr %81, i64 8
  store float %86, ptr %87, align 4, !tbaa !25
  ret void
}